target datalayout = "e-m:e-p270:32:32-p271:32:32-p272:64:64-i64:64-i128:128-f80:128-n8:16:32:64-S128"
target triple = "x86_64-pc-linux-gnu"

%struct.nghttp2_hd_nv = type { ptr, ptr, i32, i8 }
%struct.nghttp2_rcbuf = type { ptr, ptr, ptr, i64, i32 }
%struct.nghttp2_hd_context = type { %struct.nghttp2_hd_ringbuf, ptr, i64, i64, i32, i8 }
%struct.nghttp2_hd_ringbuf = type { ptr, i64, i64, i64 }
%struct.nghttp2_hd_inflater = type { %struct.nghttp2_hd_context, %struct.nghttp2_hd_huff_decode_context, %struct.nghttp2_buf, %struct.nghttp2_buf, ptr, ptr, ptr, ptr, i64, i64, i64, i64, i64, i32, i32, i8, i8, i8 }
%struct.nghttp2_hd_huff_decode_context = type { i16 }
%struct.nghttp2_buf = type { ptr, ptr, ptr, ptr, ptr }

; Function Attrs: nounwind uwtable
define internal void @emit_header(ptr noundef %0, ptr noundef %1) #0 {
  %3 = alloca ptr, align 8
  %4 = alloca ptr, align 8
  store ptr %0, ptr %3, align 8, !tbaa !8
  store ptr %1, ptr %4, align 8, !tbaa !8
  br label %5

5:                                                ; preds = %2
  br label %6

6:                                                ; preds = %5
  %7 = load ptr, ptr %3, align 8, !tbaa !8
  %8 = load ptr, ptr %4, align 8, !tbaa !8
  call void @llvm.memcpy.p0.p0.i64(ptr align 8 %7, ptr align 8 %8, i64 24, i1 false), !tbaa.struct !9
  ret void
}

; Function Attrs: nounwind uwtable
define internal i32 @hd_inflate_commit_newname(ptr noundef %0, ptr noundef %1) #0 {
  %3 = alloca i32, align 4
  %4 = alloca ptr, align 8
  %5 = alloca ptr, align 8
  %6 = alloca %struct.nghttp2_hd_nv, align 8
  %7 = alloca i32, align 4
  %8 = alloca i32, align 4
  store ptr %0, ptr %4, align 8, !tbaa !53
  store ptr %1, ptr %5, align 8, !tbaa !8
  call void @llvm.lifetime.start.p0(i64 24, ptr %6) #8
  call void @llvm.lifetime.start.p0(i64 4, ptr %7) #8
  %9 = load ptr, ptr %4, align 8, !tbaa !53
  %10 = getelementptr inbounds nuw %struct.nghttp2_hd_inflater, ptr %9, i32 0, i32 17
  %11 = load i8, ptr %10, align 2, !tbaa !72
  %12 = icmp ne i8 %11, 0
  br i1 %12, label %13, label %15

13:                                               ; preds = %2
  %14 = getelementptr inbounds nuw %struct.nghttp2_hd_nv, ptr %6, i32 0, i32 3
  store i8 1, ptr %14, align 4, !tbaa !29
  br label %17

15:                                               ; preds = %2
  %16 = getelementptr inbounds nuw %struct.nghttp2_hd_nv, ptr %6, i32 0, i32 3
  store i8 0, ptr %16, align 4, !tbaa !29
  br label %17

17:                                               ; preds = %15, %13
  %18 = load ptr, ptr %4, align 8, !tbaa !53
  %19 = getelementptr inbounds nuw %struct.nghttp2_hd_inflater, ptr %18, i32 0, i32 4
  %20 = load ptr, ptr %19, align 8, !tbaa !65
  %21 = getelementptr inbounds nuw %struct.nghttp2_hd_nv, ptr %6, i32 0, i32 0
  store ptr %20, ptr %21, align 8, !tbaa !15
  %22 = load ptr, ptr %4, align 8, !tbaa !53
  %23 = getelementptr inbounds nuw %struct.nghttp2_hd_inflater, ptr %22, i32 0, i32 5
  %24 = load ptr, ptr %23, align 8, !tbaa !66
  %25 = getelementptr inbounds nuw %struct.nghttp2_hd_nv, ptr %6, i32 0, i32 1
  store ptr %24, ptr %25, align 8, !tbaa !26
  %26 = load ptr, ptr %4, align 8, !tbaa !53
  %27 = getelementptr inbounds nuw %struct.nghttp2_hd_inflater, ptr %26, i32 0, i32 4
  %28 = load ptr, ptr %27, align 8, !tbaa !65
  %29 = getelementptr inbounds nuw %struct.nghttp2_rcbuf, ptr %28, i32 0, i32 2
  %30 = load ptr, ptr %29, align 8, !tbaa !17
  %31 = load ptr, ptr %4, align 8, !tbaa !53
  %32 = getelementptr inbounds nuw %struct.nghttp2_hd_inflater, ptr %31, i32 0, i32 4
  %33 = load ptr, ptr %32, align 8, !tbaa !65
  %34 = getelementptr inbounds nuw %struct.nghttp2_rcbuf, ptr %33, i32 0, i32 3
  %35 = load i64, ptr %34, align 8, !tbaa !24
  %36 = call i32 @lookup_token(ptr noundef %30, i64 noundef %35)
  %37 = getelementptr inbounds nuw %struct.nghttp2_hd_nv, ptr %6, i32 0, i32 2
  store i32 %36, ptr %37, align 8, !tbaa !79
  %38 = load ptr, ptr %4, align 8, !tbaa !53
  %39 = getelementptr inbounds nuw %struct.nghttp2_hd_inflater, ptr %38, i32 0, i32 16
  %40 = load i8, ptr %39, align 1, !tbaa !71
  %41 = icmp ne i8 %40, 0
  br i1 %41, label %42, label %51

42:                                               ; preds = %17
  %43 = load ptr, ptr %4, align 8, !tbaa !53
  %44 = getelementptr inbounds nuw %struct.nghttp2_hd_inflater, ptr %43, i32 0, i32 0
  %45 = call i32 @add_hd_table_incremental(ptr noundef %44, ptr noundef %6, ptr noundef null, i32 noundef 0)
  store i32 %45, ptr %7, align 4, !tbaa !12
  %46 = load i32, ptr %7, align 4, !tbaa !12
  %47 = icmp ne i32 %46, 0
  br i1 %47, label %48, label %50

48:                                               ; preds = %42
  %49 = load i32, ptr %7, align 4, !tbaa !12
  store i32 %49, ptr %3, align 4
  store i32 1, ptr %8, align 4
  br label %65

50:                                               ; preds = %42
  br label %51

51:                                               ; preds = %50, %17
  %52 = load ptr, ptr %5, align 8, !tbaa !8
  call void @emit_header(ptr noundef %52, ptr noundef %6)
  %53 = getelementptr inbounds nuw %struct.nghttp2_hd_nv, ptr %6, i32 0, i32 0
  %54 = load ptr, ptr %53, align 8, !tbaa !15
  %55 = load ptr, ptr %4, align 8, !tbaa !53
  %56 = getelementptr inbounds nuw %struct.nghttp2_hd_inflater, ptr %55, i32 0, i32 6
  store ptr %54, ptr %56, align 8, !tbaa !61
  %57 = getelementptr inbounds nuw %struct.nghttp2_hd_nv, ptr %6, i32 0, i32 1
  %58 = load ptr, ptr %57, align 8, !tbaa !26
  %59 = load ptr, ptr %4, align 8, !tbaa !53
  %60 = getelementptr inbounds nuw %struct.nghttp2_hd_inflater, ptr %59, i32 0, i32 7
  store ptr %58, ptr %60, align 8, !tbaa !62
  %61 = load ptr, ptr %4, align 8, !tbaa !53
  %62 = getelementptr inbounds nuw %struct.nghttp2_hd_inflater, ptr %61, i32 0, i32 4
  store ptr null, ptr %62, align 8, !tbaa !65
  %63 = load ptr, ptr %4, align 8, !tbaa !53
  %64 = getelementptr inbounds nuw %struct.nghttp2_hd_inflater, ptr %63, i32 0, i32 5
  store ptr null, ptr %64, align 8, !tbaa !66
  store i32 0, ptr %3, align 4
  store i32 1, ptr %8, align 4
  br label %65

65:                                               ; preds = %51, %48
  call void @llvm.lifetime.end.p0(i64 4, ptr %7) #8
  call void @llvm.lifetime.end.p0(i64 24, ptr %6) #8
  %66 = load i32, ptr %3, align 4
  ret i32 %66
}