; Function Attrs: nounwind uwtable
define internal fastcc range(i32 -901, 1) i32 @hd_inflate_commit_newname(ptr noundef captures(none) %0, ptr noundef writeonly captures(none) %1) unnamed_addr #0 {
  %3 = alloca %struct.nghttp2_hd_nv, align 8
  call void @llvm.lifetime.start.p0(i64 24, ptr nonnull %3) #12
  %4 = getelementptr inbounds nuw i8, ptr %0, i64 234
  %5 = load i8, ptr %4, align 2, !tbaa !61
  %.not = icmp ne i8 %5, 0
  %spec.select = zext i1 %.not to i8
  %6 = getelementptr inbounds nuw i8, ptr %3, i64 20
  store i8 %spec.select, ptr %6, align 4, !tbaa !27
  %7 = getelementptr inbounds nuw i8, ptr %0, i64 152
  %8 = load ptr, ptr %7, align 8, !tbaa !70
  store ptr %8, ptr %3, align 8, !tbaa !12
  %9 = getelementptr inbounds nuw i8, ptr %0, i64 160
  %10 = load ptr, ptr %9, align 8, !tbaa !69
  %11 = getelementptr inbounds nuw i8, ptr %3, i64 8
  store ptr %10, ptr %11, align 8, !tbaa !24
  %12 = getelementptr inbounds nuw i8, ptr %8, i64 16
  %13 = load ptr, ptr %12, align 8, !tbaa !14
  %14 = getelementptr inbounds nuw i8, ptr %8, i64 24
  %15 = load i64, ptr %14, align 8, !tbaa !22
  %16 = tail call fastcc i32 @lookup_token(ptr noundef %13, i64 noundef %15)
  %17 = getelementptr inbounds nuw i8, ptr %3, i64 16
  store i32 %16, ptr %17, align 8, !tbaa !77
  %18 = getelementptr inbounds nuw i8, ptr %0, i64 233
  %19 = load i8, ptr %18, align 1, !tbaa !60
  %.not15 = icmp eq i8 %19, 0
  br i1 %.not15, label %22, label %20

20:                                               ; preds = %2
  %21 = call fastcc i32 @add_hd_table_incremental(ptr noundef nonnull %0, ptr noundef %3, ptr noundef null, i32 noundef 0)
  %.not16 = icmp eq i32 %21, 0
  br i1 %.not16, label %22, label %25

22:                                               ; preds = %20, %2
  call void @llvm.memcpy.p0.p0.i64(ptr noundef nonnull align 8 dereferenceable(24) %1, ptr noundef nonnull readonly align 8 dereferenceable(24) %3, i64 24, i1 false), !tbaa.struct !3
  %23 = getelementptr inbounds nuw i8, ptr %0, i64 168
  store ptr %8, ptr %23, align 8, !tbaa !68
  %24 = getelementptr inbounds nuw i8, ptr %0, i64 176
  store ptr %10, ptr %24, align 8, !tbaa !67
  tail call void @llvm.memset.p0.i64(ptr noundef nonnull align 8 dereferenceable(16) %7, i8 0, i64 16, i1 false)
  br label %25

25:                                               ; preds = %20, %22
  %.0 = phi i32 [ 0, %22 ], [ %21, %20 ]
  call void @llvm.lifetime.end.p0(i64 24, ptr nonnull %3) #12
  ret i32 %.0
}